; Function Attrs: nounwind uwtable
define range(i32 0, 2) i32 @PKCS7_content_new(ptr noundef readonly captures(none) %0, i32 noundef %1) local_unnamed_addr #0 {
  %3 = tail call ptr @PKCS7_new() #7
  %4 = icmp eq ptr %3, null
  br i1 %4, label %9, label %5

5:                                                ; preds = %2
  %6 = tail call i32 @PKCS7_set_type(ptr noundef nonnull %3, i32 noundef %1)
  %.not = icmp eq i32 %6, 0
  br i1 %.not, label %9, label %7

7:                                                ; preds = %5
  %8 = tail call i32 @PKCS7_set_content(ptr noundef %0, ptr noundef nonnull %3)
  %.not6 = icmp eq i32 %8, 0
  br i1 %.not6, label %9, label %10

9:                                                ; preds = %7, %5, %2
  tail call void @PKCS7_free(ptr noundef %3) #7
  br label %10

10:                                               ; preds = %7, %9
  %.0 = phi i32 [ 0, %9 ], [ 1, %7 ]
  ret i32 %.0
}